; Function Attrs: mustprogress uwtable
define dso_local void @_ZN4Json9OurReader12normalizeEOLB5cxx11EPKcS2_(ptr dead_on_unwind noalias nonnull writable sret(%"class.std::__cxx11::basic_string") align 8 %0, ptr noundef %1, ptr noundef %2) local_unnamed_addr #6 align 2 personality ptr @__gxx_personality_v0 {
  tail call void @_ZNSt7__cxx1112basic_stringIcSt11char_traitsIcESaIcEEC1Ev(ptr noundef nonnull align 8 dereferenceable(32) %0) #25
  %4 = ptrtoint ptr %2 to i64
  %5 = ptrtoint ptr %1 to i64
  %6 = sub i64 %4, %5
  invoke void @_ZNSt7__cxx1112basic_stringIcSt11char_traitsIcESaIcEE7reserveEm(ptr noundef nonnull align 8 dereferenceable(32) %0, i64 noundef %6)
          to label %.preheader unwind label %.loopexit.split-lp

.preheader:                                       ; preds = %3
  %.not18 = icmp eq ptr %1, %2
  br i1 %.not18, label %._crit_edge, label %.lr.ph

.lr.ph:                                           ; preds = %.preheader, %20
  %.019 = phi ptr [ %.2, %20 ], [ %1, %.preheader ]
  %7 = getelementptr inbounds i8, ptr %.019, i64 1
  %8 = load i8, ptr %.019, align 1
  %9 = icmp eq i8 %8, 13
  br i1 %9, label %10, label %18

10:                                               ; preds = %.lr.ph
  %.not17 = icmp eq ptr %7, %2
  br i1 %.not17, label %16, label %11

11:                                               ; preds = %10
  %12 = load i8, ptr %7, align 1
  %13 = icmp eq i8 %12, 10
  %14 = getelementptr inbounds i8, ptr %.019, i64 2
  %spec.select = select i1 %13, ptr %14, ptr %7
  br label %16

.loopexit:                                        ; preds = %16, %18
  %lpad.loopexit = landingpad { ptr, i32 }
          cleanup
  br label %15

.loopexit.split-lp:                               ; preds = %3
  %lpad.loopexit.split-lp = landingpad { ptr, i32 }
          cleanup
  br label %15

15:                                               ; preds = %.loopexit.split-lp, %.loopexit
  %lpad.phi = phi { ptr, i32 } [ %lpad.loopexit, %.loopexit ], [ %lpad.loopexit.split-lp, %.loopexit.split-lp ]
  tail call void @_ZNSt7__cxx1112basic_stringIcSt11char_traitsIcESaIcEED1Ev(ptr noundef nonnull align 8 dereferenceable(32) %0) #25
  resume { ptr, i32 } %lpad.phi

16:                                               ; preds = %11, %10
  %.1 = phi ptr [ %2, %10 ], [ %spec.select, %11 ]
  %17 = invoke noundef nonnull align 8 dereferenceable(32) ptr @_ZNSt7__cxx1112basic_stringIcSt11char_traitsIcESaIcEEpLEc(ptr noundef nonnull align 8 dereferenceable(32) %0, i8 noundef signext 10)
          to label %20 unwind label %.loopexit

18:                                               ; preds = %.lr.ph
  %19 = invoke noundef nonnull align 8 dereferenceable(32) ptr @_ZNSt7__cxx1112basic_stringIcSt11char_traitsIcESaIcEEpLEc(ptr noundef nonnull align 8 dereferenceable(32) %0, i8 noundef signext %8)
          to label %20 unwind label %.loopexit

20:                                               ; preds = %18, %16
  %.2 = phi ptr [ %.1, %16 ], [ %7, %18 ]
  %.not = icmp eq ptr %.2, %2
  br i1 %.not, label %._crit_edge, label %.lr.ph, !llvm.loop !302

._crit_edge:                                      ; preds = %20, %.preheader
  ret void
}